target datalayout = "e-m:e-p270:32:32-p271:32:32-p272:64:64-i64:64-i128:128-f80:128-n8:16:32:64-S128"
target triple = "x86_64-pc-linux-gnu"

%struct.free_envelope_list = type { ptr, ptr }
%struct.envelope = type { i32, ptr, ptr, ptr, ptr, i64, ptr, i32, %struct.tMPI_Atomic, i32, ptr, ptr, i32, ptr, ptr, ptr, ptr }
%struct.tMPI_Atomic = type { i32, [60 x i8] }

; Function Attrs: mustprogress uwtable
define noundef i32 @_Z23tMPI_Free_env_list_initP18free_envelope_listi(ptr noundef %0, i32 noundef %1) #0 {
  %3 = alloca i32, align 4
  %4 = alloca ptr, align 8
  %5 = alloca i32, align 4
  %6 = alloca i32, align 4
  %7 = alloca i32, align 4
  store ptr %0, ptr %4, align 8, !tbaa !3
  store i32 %1, ptr %5, align 4, !tbaa !8
  call void @llvm.lifetime.start.p0(i64 4, ptr %6) #7
  %8 = load i32, ptr %5, align 4, !tbaa !8
  %9 = sext i32 %8 to i64
  %10 = mul i64 184, %9
  %11 = call noundef ptr @_Z11tMPI_Mallocm(i64 noundef %10)
  %12 = load ptr, ptr %4, align 8, !tbaa !3
  %13 = getelementptr inbounds nuw %struct.free_envelope_list, ptr %12, i32 0, i32 1
  store ptr %11, ptr %13, align 8, !tbaa !10
  %14 = load ptr, ptr %4, align 8, !tbaa !3
  %15 = getelementptr inbounds nuw %struct.free_envelope_list, ptr %14, i32 0, i32 1
  %16 = load ptr, ptr %15, align 8, !tbaa !10
  %17 = icmp eq ptr %16, null
  br i1 %17, label %18, label %19

18:                                               ; preds = %2
  store i32 1, ptr %3, align 4
  store i32 1, ptr %7, align 4
  br label %76

19:                                               ; preds = %2
  %20 = load ptr, ptr %4, align 8, !tbaa !3
  %21 = getelementptr inbounds nuw %struct.free_envelope_list, ptr %20, i32 0, i32 1
  %22 = load ptr, ptr %21, align 8, !tbaa !10
  %23 = load ptr, ptr %4, align 8, !tbaa !3
  %24 = getelementptr inbounds nuw %struct.free_envelope_list, ptr %23, i32 0, i32 0
  store ptr %22, ptr %24, align 8, !tbaa !13
  store i32 0, ptr %6, align 4, !tbaa !8
  br label %25

25:                                               ; preds = %72, %19
  %26 = load i32, ptr %6, align 4, !tbaa !8
  %27 = load i32, ptr %5, align 4, !tbaa !8
  %28 = icmp slt i32 %26, %27
  br i1 %28, label %29, label %75

29:                                               ; preds = %25
  %30 = load i32, ptr %6, align 4, !tbaa !8
  %31 = load i32, ptr %5, align 4, !tbaa !8
  %32 = sub nsw i32 %31, 1
  %33 = icmp slt i32 %30, %32
  br i1 %33, label %34, label %49

34:                                               ; preds = %29
  %35 = load ptr, ptr %4, align 8, !tbaa !3
  %36 = getelementptr inbounds nuw %struct.free_envelope_list, ptr %35, i32 0, i32 0
  %37 = load ptr, ptr %36, align 8, !tbaa !13
  %38 = load i32, ptr %6, align 4, !tbaa !8
  %39 = add nsw i32 %38, 1
  %40 = sext i32 %39 to i64
  %41 = getelementptr inbounds %struct.envelope, ptr %37, i64 %40
  %42 = load ptr, ptr %4, align 8, !tbaa !3
  %43 = getelementptr inbounds nuw %struct.free_envelope_list, ptr %42, i32 0, i32 0
  %44 = load ptr, ptr %43, align 8, !tbaa !13
  %45 = load i32, ptr %6, align 4, !tbaa !8
  %46 = sext i32 %45 to i64
  %47 = getelementptr inbounds %struct.envelope, ptr %44, i64 %46
  %48 = getelementptr inbounds nuw %struct.envelope, ptr %47, i32 0, i32 11
  store ptr %41, ptr %48, align 8, !tbaa !14
  br label %57

49:                                               ; preds = %29
  %50 = load ptr, ptr %4, align 8, !tbaa !3
  %51 = getelementptr inbounds nuw %struct.free_envelope_list, ptr %50, i32 0, i32 0
  %52 = load ptr, ptr %51, align 8, !tbaa !13
  %53 = load i32, ptr %6, align 4, !tbaa !8
  %54 = sext i32 %53 to i64
  %55 = getelementptr inbounds %struct.envelope, ptr %52, i64 %54
  %56 = getelementptr inbounds nuw %struct.envelope, ptr %55, i32 0, i32 11
  store ptr null, ptr %56, align 8, !tbaa !14
  br label %57

57:                                               ; preds = %49, %34
  %58 = load ptr, ptr %4, align 8, !tbaa !3
  %59 = getelementptr inbounds nuw %struct.free_envelope_list, ptr %58, i32 0, i32 0
  %60 = load ptr, ptr %59, align 8, !tbaa !13
  %61 = load i32, ptr %6, align 4, !tbaa !8
  %62 = sext i32 %61 to i64
  %63 = getelementptr inbounds %struct.envelope, ptr %60, i64 %62
  %64 = getelementptr inbounds nuw %struct.envelope, ptr %63, i32 0, i32 15
  store ptr null, ptr %64, align 8, !tbaa !23
  %65 = load ptr, ptr %4, align 8, !tbaa !3
  %66 = getelementptr inbounds nuw %struct.free_envelope_list, ptr %65, i32 0, i32 0
  %67 = load ptr, ptr %66, align 8, !tbaa !13
  %68 = load i32, ptr %6, align 4, !tbaa !8
  %69 = sext i32 %68 to i64
  %70 = getelementptr inbounds %struct.envelope, ptr %67, i64 %69
  %71 = getelementptr inbounds nuw %struct.envelope, ptr %70, i32 0, i32 16
  store ptr null, ptr %71, align 8, !tbaa !24
  br label %72

72:                                               ; preds = %57
  %73 = load i32, ptr %6, align 4, !tbaa !8
  %74 = add nsw i32 %73, 1
  store i32 %74, ptr %6, align 4, !tbaa !8
  br label %25, !llvm.loop !25

75:                                               ; preds = %25
  store i32 0, ptr %3, align 4
  store i32 1, ptr %7, align 4
  br label %76

76:                                               ; preds = %75, %18
  call void @llvm.lifetime.end.p0(i64 4, ptr %6) #7
  %77 = load i32, ptr %3, align 4
  ret i32 %77
}