; Function Attrs: mustprogress uwtable
define noundef range(i32 0, 2) i32 @_Z23tMPI_Free_env_list_initP18free_envelope_listi(ptr noundef writeonly captures(none) initializes((8, 16)) %0, i32 noundef %1) local_unnamed_addr #0 {
  %3 = sext i32 %1 to i64
  %4 = mul nsw i64 %3, 184
  %5 = tail call noundef ptr @_Z11tMPI_Mallocm(i64 noundef %4)
  %6 = getelementptr inbounds nuw i8, ptr %0, i64 8
  store ptr %5, ptr %6, align 8, !tbaa !3
  %7 = icmp eq ptr %5, null
  br i1 %7, label %.loopexit, label %8

8:                                                ; preds = %2
  store ptr %5, ptr %0, align 8, !tbaa !9
  %invariant.gep = getelementptr inbounds nuw i8, ptr %5, i64 184
  %9 = icmp sgt i32 %1, 0
  br i1 %9, label %.lr.ph, label %.loopexit

.lr.ph:                                           ; preds = %8
  %10 = add nsw i32 %1, -1
  %11 = zext nneg i32 %10 to i64
  %wide.trip.count = zext nneg i32 %1 to i64
  br label %12

12:                                               ; preds = %.lr.ph, %12
  %indvars.iv = phi i64 [ 0, %.lr.ph ], [ %indvars.iv.next, %12 ]
  %13 = icmp samesign ult i64 %indvars.iv, %11
  %gep = getelementptr inbounds nuw %struct.envelope, ptr %invariant.gep, i64 %indvars.iv
  %spec.select = select i1 %13, ptr %gep, ptr null
  %14 = getelementptr inbounds nuw %struct.envelope, ptr %5, i64 %indvars.iv, i32 11
  store ptr %spec.select, ptr %14, align 8, !tbaa !10
  %15 = getelementptr inbounds nuw %struct.envelope, ptr %5, i64 %indvars.iv, i32 15
  %indvars.iv.next = add nuw nsw i64 %indvars.iv, 1
  %exitcond.not = icmp eq i64 %indvars.iv.next, %wide.trip.count
  tail call void @llvm.memset.p0.i64(ptr noundef nonnull align 8 dereferenceable(16) %15, i8 0, i64 16, i1 false)
  br i1 %exitcond.not, label %.loopexit, label %12, !llvm.loop !20

.loopexit:                                        ; preds = %12, %8, %2
  %.020 = phi i32 [ 1, %2 ], [ 0, %8 ], [ 0, %12 ]
  ret i32 %.020
}